target datalayout = "e-m:e-p270:32:32-p271:32:32-p272:64:64-i64:64-i128:128-f80:128-n8:16:32:64-S128"
target triple = "x86_64-pc-linux-gnu"

%class.LogTagSet = type { ptr, i64, [5 x i32], [4 x i8], %class.LogOutputList, %class.LogDecorators, ptr }
%class.LogOutputList = type <{ [6 x ptr], i32, [4 x i8] }>
%class.LogDecorators = type { i32 }
%class.G1MMUTracker = type <{ double, double, [64 x %class.G1MMUTrackerElem], i32, i32, i32, [4 x i8] }>
%class.G1MMUTrackerElem = type { double, double }

@g_assert_poison = external global ptr, align 8
@.str = private unnamed_addr constant [41 x i8] c"src/hotspot/share/gc/g1/g1MMUTracker.cpp\00", align 1
@.str.4 = private unnamed_addr constant [35 x i8] c"guarantee(_no_entries == 0) failed\00", align 1
@.str.5 = private unnamed_addr constant [36 x i8] c"should have no entries in the array\00", align 1
@.str.6 = private unnamed_addr constant [31 x i8] c"MMU: %.1lfms (%.1lfms/%.1lfms)\00", align 1
@.str.7 = private unnamed_addr constant [47 x i8] c"MMU target violated: %.1lfms (%.1lfms/%.1lfms)\00", align 1
@_ZN16LogTagSetMappingILN6LogTag4typeE49ELS1_88ELS1_0ELS1_0ELS1_0ELS1_0EE7_tagsetE = linkonce_odr hidden global %class.LogTagSet zeroinitializer, comdat, align 8

; Function Attrs: mustprogress nounwind uwtable
define linkonce_odr hidden noundef zeroext i1 @_ZNK13LogOutputList8is_levelEN8LogLevel4typeE(ptr noundef nonnull align 8 dereferenceable(52) %0, i32 noundef %1) #1 comdat align 2 {
  %3 = alloca ptr, align 8
  %4 = alloca i32, align 4
  store ptr %0, ptr %3, align 8
  store i32 %1, ptr %4, align 4
  %5 = load ptr, ptr %3, align 8
  %6 = getelementptr inbounds %class.LogOutputList, ptr %5, i32 0, i32 0
  %7 = load i32, ptr %4, align 4
  %8 = zext i32 %7 to i64
  %9 = getelementptr inbounds [6 x ptr], ptr %6, i64 0, i64 %8
  %10 = load volatile ptr, ptr %9, align 8
  %11 = icmp ne ptr %10, null
  ret i1 %11
}

; Function Attrs: mustprogress nounwind uwtable
define linkonce_odr hidden noundef zeroext i1 @_ZNK9LogTagSet8is_levelEN8LogLevel4typeE(ptr noundef nonnull align 8 dereferenceable(112) %0, i32 noundef %1) #1 comdat align 2 {
  %3 = alloca ptr, align 8
  %4 = alloca i32, align 4
  store ptr %0, ptr %3, align 8
  store i32 %1, ptr %4, align 4
  %5 = load ptr, ptr %3, align 8
  %6 = getelementptr inbounds %class.LogTagSet, ptr %5, i32 0, i32 4
  %7 = load i32, ptr %4, align 4
  %8 = call noundef zeroext i1 @_ZNK13LogOutputList8is_levelEN8LogLevel4typeE(ptr noundef nonnull align 8 dereferenceable(52) %6, i32 noundef %7)
  ret i1 %8
}

; Function Attrs: mustprogress nounwind uwtable
define linkonce_odr hidden noundef nonnull align 8 dereferenceable(112) ptr @_ZN16LogTagSetMappingILN6LogTag4typeE49ELS1_88ELS1_0ELS1_0ELS1_0ELS1_0EE6tagsetEv() #1 comdat align 2 {
  ret ptr @_ZN16LogTagSetMappingILN6LogTag4typeE49ELS1_88ELS1_0ELS1_0ELS1_0ELS1_0EE7_tagsetE
}

; Function Attrs: mustprogress nounwind uwtable
define linkonce_odr hidden noundef double @_ZNK16G1MMUTrackerElem8durationEv(ptr noundef nonnull align 8 dereferenceable(16) %0) #1 comdat align 2 {
  %2 = alloca ptr, align 8
  store ptr %0, ptr %2, align 8
  %3 = load ptr, ptr %2, align 8
  %4 = getelementptr inbounds %class.G1MMUTrackerElem, ptr %3, i32 0, i32 1
  %5 = load double, ptr %4, align 8
  %6 = getelementptr inbounds %class.G1MMUTrackerElem, ptr %3, i32 0, i32 0
  %7 = load double, ptr %6, align 8
  %8 = fsub double %5, %7
  ret double %8
}

; Function Attrs: mustprogress nounwind uwtable
define linkonce_odr hidden noundef double @_ZNK16G1MMUTrackerElem10start_timeEv(ptr noundef nonnull align 8 dereferenceable(16) %0) #1 comdat align 2 {
  %2 = alloca ptr, align 8
  store ptr %0, ptr %2, align 8
  %3 = load ptr, ptr %2, align 8
  %4 = getelementptr inbounds %class.G1MMUTrackerElem, ptr %3, i32 0, i32 0
  %5 = load double, ptr %4, align 8
  ret double %5
}

; Function Attrs: mustprogress nounwind uwtable
define linkonce_odr hidden noundef double @_ZNK16G1MMUTrackerElem8end_timeEv(ptr noundef nonnull align 8 dereferenceable(16) %0) #1 comdat align 2 {
  %2 = alloca ptr, align 8
  store ptr %0, ptr %2, align 8
  %3 = load ptr, ptr %2, align 8
  %4 = getelementptr inbounds %class.G1MMUTrackerElem, ptr %3, i32 0, i32 1
  %5 = load double, ptr %4, align 8
  ret double %5
}

; Function Attrs: mustprogress nounwind uwtable
define linkonce_odr hidden noundef zeroext i1 @_ZN7LogImplILN6LogTag4typeE49ELS1_88ELS1_0ELS1_0ELS1_0ELS1_0EE8is_levelEN8LogLevel4typeE(i32 noundef %0) #1 comdat align 2 {
  %2 = alloca i32, align 4
  store i32 %0, ptr %2, align 4
  %3 = call noundef nonnull align 8 dereferenceable(112) ptr @_ZN16LogTagSetMappingILN6LogTag4typeE49ELS1_88ELS1_0ELS1_0ELS1_0ELS1_0EE6tagsetEv()
  %4 = load i32, ptr %2, align 4
  %5 = call noundef zeroext i1 @_ZNK9LogTagSet8is_levelEN8LogLevel4typeE(ptr noundef nonnull align 8 dereferenceable(112) %3, i32 noundef %4)
  ret i1 %5
}

; Function Attrs: mustprogress nounwind uwtable
define hidden noundef double @_ZN12G1MMUTracker17calculate_gc_timeEd(ptr noundef nonnull align 8 dereferenceable(1052) %0, double noundef %1) #1 align 2 {
  %3 = alloca ptr, align 8
  %4 = alloca double, align 8
  %5 = alloca double, align 8
  %6 = alloca double, align 8
  %7 = alloca i32, align 4
  %8 = alloca i32, align 4
  %9 = alloca ptr, align 8
  store ptr %0, ptr %3, align 8
  store double %1, ptr %4, align 8
  %10 = load ptr, ptr %3, align 8
  store double 0.000000e+00, ptr %5, align 8
  %11 = load double, ptr %4, align 8
  %12 = getelementptr inbounds %class.G1MMUTracker, ptr %10, i32 0, i32 0
  %13 = load double, ptr %12, align 8
  %14 = fsub double %11, %13
  store double %14, ptr %6, align 8
  store i32 0, ptr %7, align 4
  br label %15

15:                                               ; preds = %53, %2
  %16 = load i32, ptr %7, align 4
  %17 = getelementptr inbounds %class.G1MMUTracker, ptr %10, i32 0, i32 5
  %18 = load i32, ptr %17, align 8
  %19 = icmp slt i32 %16, %18
  br i1 %19, label %20, label %56

20:                                               ; preds = %15
  %21 = getelementptr inbounds %class.G1MMUTracker, ptr %10, i32 0, i32 4
  %22 = load i32, ptr %21, align 4
  %23 = load i32, ptr %7, align 4
  %24 = add nsw i32 %22, %23
  %25 = call noundef i32 @_ZNK12G1MMUTracker10trim_indexEi(ptr noundef nonnull align 8 dereferenceable(1052) %10, i32 noundef %24)
  store i32 %25, ptr %8, align 4
  %26 = getelementptr inbounds %class.G1MMUTracker, ptr %10, i32 0, i32 2
  %27 = load i32, ptr %8, align 4
  %28 = sext i32 %27 to i64
  %29 = getelementptr inbounds [64 x %class.G1MMUTrackerElem], ptr %26, i64 0, i64 %28
  store ptr %29, ptr %9, align 8
  %30 = load ptr, ptr %9, align 8
  %31 = call noundef double @_ZNK16G1MMUTrackerElem8end_timeEv(ptr noundef nonnull align 8 dereferenceable(16) %30)
  %32 = load double, ptr %6, align 8
  %33 = fcmp ogt double %31, %32
  br i1 %33, label %34, label %52

34:                                               ; preds = %20
  %35 = load ptr, ptr %9, align 8
  %36 = call noundef double @_ZNK16G1MMUTrackerElem10start_timeEv(ptr noundef nonnull align 8 dereferenceable(16) %35)
  %37 = load double, ptr %6, align 8
  %38 = fcmp ogt double %36, %37
  br i1 %38, label %39, label %44

39:                                               ; preds = %34
  %40 = load ptr, ptr %9, align 8
  %41 = call noundef double @_ZNK16G1MMUTrackerElem8durationEv(ptr noundef nonnull align 8 dereferenceable(16) %40)
  %42 = load double, ptr %5, align 8
  %43 = fadd double %42, %41
  store double %43, ptr %5, align 8
  br label %51

44:                                               ; preds = %34
  %45 = load ptr, ptr %9, align 8
  %46 = call noundef double @_ZNK16G1MMUTrackerElem8end_timeEv(ptr noundef nonnull align 8 dereferenceable(16) %45)
  %47 = load double, ptr %6, align 8
  %48 = fsub double %46, %47
  %49 = load double, ptr %5, align 8
  %50 = fadd double %49, %48
  store double %50, ptr %5, align 8
  br label %51

51:                                               ; preds = %44, %39
  br label %52

52:                                               ; preds = %51, %20
  br label %53

53:                                               ; preds = %52
  %54 = load i32, ptr %7, align 4
  %55 = add nsw i32 %54, 1
  store i32 %55, ptr %7, align 4
  br label %15, !llvm.loop !8

56:                                               ; preds = %15
  %57 = load double, ptr %5, align 8
  ret double %57
}

; Function Attrs: mustprogress nounwind uwtable
define linkonce_odr hidden void @_ZN16G1MMUTrackerElemC2Edd(ptr noundef nonnull align 8 dereferenceable(16) %0, double noundef %1, double noundef %2) unnamed_addr #1 comdat align 2 {
  %4 = alloca ptr, align 8
  %5 = alloca double, align 8
  %6 = alloca double, align 8
  store ptr %0, ptr %4, align 8
  store double %1, ptr %5, align 8
  store double %2, ptr %6, align 8
  %7 = load ptr, ptr %4, align 8
  %8 = load double, ptr %5, align 8
  %9 = getelementptr inbounds %class.G1MMUTrackerElem, ptr %7, i32 0, i32 0
  store double %8, ptr %9, align 8
  %10 = load double, ptr %6, align 8
  %11 = getelementptr inbounds %class.G1MMUTrackerElem, ptr %7, i32 0, i32 1
  store double %10, ptr %11, align 8
  ret void
}

; Function Attrs: mustprogress nounwind uwtable
define linkonce_odr hidden noundef i32 @_ZNK12G1MMUTracker10trim_indexEi(ptr noundef nonnull align 8 dereferenceable(1052) %0, i32 noundef %1) #1 comdat align 2 {
  %3 = alloca ptr, align 8
  %4 = alloca i32, align 4
  store ptr %0, ptr %3, align 8
  store i32 %1, ptr %4, align 4
  %5 = load i32, ptr %4, align 4
  %6 = add nsw i32 %5, 64
  %7 = srem i32 %6, 64
  ret i32 %7
}

; Function Attrs: mustprogress nounwind uwtable
define hidden void @_ZN12G1MMUTracker22remove_expired_entriesEd(ptr noundef nonnull align 8 dereferenceable(1052) %0, double noundef %1) #1 align 2 {
  %3 = alloca ptr, align 8
  %4 = alloca double, align 8
  %5 = alloca double, align 8
  store ptr %0, ptr %3, align 8
  store double %1, ptr %4, align 8
  %6 = load ptr, ptr %3, align 8
  %7 = load double, ptr %4, align 8
  %8 = getelementptr inbounds %class.G1MMUTracker, ptr %6, i32 0, i32 0
  %9 = load double, ptr %8, align 8
  %10 = fsub double %7, %9
  store double %10, ptr %5, align 8
  br label %11

11:                                               ; preds = %35, %2
  %12 = getelementptr inbounds %class.G1MMUTracker, ptr %6, i32 0, i32 5
  %13 = load i32, ptr %12, align 8
  %14 = icmp sgt i32 %13, 0
  br i1 %14, label %15, label %36

15:                                               ; preds = %11
  %16 = getelementptr inbounds %class.G1MMUTracker, ptr %6, i32 0, i32 2
  %17 = getelementptr inbounds %class.G1MMUTracker, ptr %6, i32 0, i32 4
  %18 = load i32, ptr %17, align 4
  %19 = sext i32 %18 to i64
  %20 = getelementptr inbounds [64 x %class.G1MMUTrackerElem], ptr %16, i64 0, i64 %19
  %21 = call noundef double @_ZNK16G1MMUTrackerElem8end_timeEv(ptr noundef nonnull align 8 dereferenceable(16) %20)
  %22 = load double, ptr %5, align 8
  %23 = fsub double %21, %22
  %24 = fcmp olt double %23, 0x3E7AD7F29ABCAF48
  br i1 %24, label %25, label %34

25:                                               ; preds = %15
  %26 = getelementptr inbounds %class.G1MMUTracker, ptr %6, i32 0, i32 4
  %27 = load i32, ptr %26, align 4
  %28 = add nsw i32 %27, 1
  %29 = call noundef i32 @_ZNK12G1MMUTracker10trim_indexEi(ptr noundef nonnull align 8 dereferenceable(1052) %6, i32 noundef %28)
  %30 = getelementptr inbounds %class.G1MMUTracker, ptr %6, i32 0, i32 4
  store i32 %29, ptr %30, align 4
  %31 = getelementptr inbounds %class.G1MMUTracker, ptr %6, i32 0, i32 5
  %32 = load i32, ptr %31, align 8
  %33 = add nsw i32 %32, -1
  store i32 %33, ptr %31, align 8
  br label %35

34:                                               ; preds = %15
  br label %44

35:                                               ; preds = %25
  br label %11, !llvm.loop !6

36:                                               ; preds = %11
  br label %37

37:                                               ; preds = %36
  %38 = getelementptr inbounds %class.G1MMUTracker, ptr %6, i32 0, i32 5
  %39 = load i32, ptr %38, align 8
  %40 = icmp eq i32 %39, 0
  br i1 %40, label %43, label %41

41:                                               ; preds = %37
  %42 = load ptr, ptr @g_assert_poison, align 8
  store i8 88, ptr %42, align 1
  call void (ptr, i32, ptr, ptr, ...) @_Z15report_vm_errorPKciS0_S0_z(ptr noundef @.str, i32 noundef 56, ptr noundef @.str.4, ptr noundef @.str.5) #6
  unreachable

43:                                               ; preds = %37
  br label %44

44:                                               ; preds = %43, %34
  ret void
}

; Function Attrs: mustprogress nounwind uwtable
define hidden void @_ZN12G1MMUTracker9add_pauseEdd(ptr noundef nonnull align 8 dereferenceable(1052) %0, double noundef %1, double noundef %2) #1 align 2 {
  %4 = alloca ptr, align 8
  %5 = alloca double, align 8
  %6 = alloca double, align 8
  %7 = alloca %class.G1MMUTrackerElem, align 8
  %8 = alloca double, align 8
  store ptr %0, ptr %4, align 8
  store double %1, ptr %5, align 8
  store double %2, ptr %6, align 8
  %9 = load ptr, ptr %4, align 8
  %10 = load double, ptr %6, align 8
  call void @_ZN12G1MMUTracker22remove_expired_entriesEd(ptr noundef nonnull align 8 dereferenceable(1052) %9, double noundef %10)
  %11 = getelementptr inbounds %class.G1MMUTracker, ptr %9, i32 0, i32 5
  %12 = load i32, ptr %11, align 8
  %13 = icmp eq i32 %12, 64
  br i1 %13, label %14, label %25

14:                                               ; preds = %3
  %15 = getelementptr inbounds %class.G1MMUTracker, ptr %9, i32 0, i32 3
  %16 = load i32, ptr %15, align 8
  %17 = add nsw i32 %16, 1
  %18 = call noundef i32 @_ZNK12G1MMUTracker10trim_indexEi(ptr noundef nonnull align 8 dereferenceable(1052) %9, i32 noundef %17)
  %19 = getelementptr inbounds %class.G1MMUTracker, ptr %9, i32 0, i32 3
  store i32 %18, ptr %19, align 8
  %20 = getelementptr inbounds %class.G1MMUTracker, ptr %9, i32 0, i32 4
  %21 = load i32, ptr %20, align 4
  %22 = add nsw i32 %21, 1
  %23 = call noundef i32 @_ZNK12G1MMUTracker10trim_indexEi(ptr noundef nonnull align 8 dereferenceable(1052) %9, i32 noundef %22)
  %24 = getelementptr inbounds %class.G1MMUTracker, ptr %9, i32 0, i32 4
  store i32 %23, ptr %24, align 4
  br label %34

25:                                               ; preds = %3
  %26 = getelementptr inbounds %class.G1MMUTracker, ptr %9, i32 0, i32 3
  %27 = load i32, ptr %26, align 8
  %28 = add nsw i32 %27, 1
  %29 = call noundef i32 @_ZNK12G1MMUTracker10trim_indexEi(ptr noundef nonnull align 8 dereferenceable(1052) %9, i32 noundef %28)
  %30 = getelementptr inbounds %class.G1MMUTracker, ptr %9, i32 0, i32 3
  store i32 %29, ptr %30, align 8
  %31 = getelementptr inbounds %class.G1MMUTracker, ptr %9, i32 0, i32 5
  %32 = load i32, ptr %31, align 8
  %33 = add nsw i32 %32, 1
  store i32 %33, ptr %31, align 8
  br label %34

34:                                               ; preds = %25, %14
  %35 = load double, ptr %5, align 8
  %36 = load double, ptr %6, align 8
  call void @_ZN16G1MMUTrackerElemC2Edd(ptr noundef nonnull align 8 dereferenceable(16) %7, double noundef %35, double noundef %36)
  %37 = getelementptr inbounds %class.G1MMUTracker, ptr %9, i32 0, i32 2
  %38 = getelementptr inbounds %class.G1MMUTracker, ptr %9, i32 0, i32 3
  %39 = load i32, ptr %38, align 8
  %40 = sext i32 %39 to i64
  %41 = getelementptr inbounds [64 x %class.G1MMUTrackerElem], ptr %37, i64 0, i64 %40
  call void @llvm.memcpy.p0.p0.i64(ptr align 8 %41, ptr align 8 %7, i64 16, i1 false)
  %42 = load double, ptr %6, align 8
  %43 = call noundef double @_ZN12G1MMUTracker17calculate_gc_timeEd(ptr noundef nonnull align 8 dereferenceable(1052) %9, double noundef %42)
  store double %43, ptr %8, align 8
  %44 = getelementptr inbounds %class.G1MMUTracker, ptr %9, i32 0, i32 0
  %45 = load double, ptr %44, align 8
  %46 = load double, ptr %8, align 8
  %47 = getelementptr inbounds %class.G1MMUTracker, ptr %9, i32 0, i32 1
  %48 = load double, ptr %47, align 8
  call void @_ZN11G1MMUTracer10report_mmuEddd(double noundef %45, double noundef %46, double noundef %48)
  %49 = load double, ptr %8, align 8
  %50 = getelementptr inbounds %class.G1MMUTracker, ptr %9, i32 0, i32 1
  %51 = load double, ptr %50, align 8
  %52 = fcmp olt double %49, %51
  br i1 %52, label %53, label %66

53:                                               ; preds = %34
  %54 = call noundef zeroext i1 @_ZN7LogImplILN6LogTag4typeE49ELS1_88ELS1_0ELS1_0ELS1_0ELS1_0EE8is_levelEN8LogLevel4typeE(i32 noundef 2)
  br i1 %54, label %56, label %55

55:                                               ; preds = %53
  br label %65

56:                                               ; preds = %53
  %57 = load double, ptr %8, align 8
  %58 = fmul double %57, 1.000000e+03
  %59 = getelementptr inbounds %class.G1MMUTracker, ptr %9, i32 0, i32 1
  %60 = load double, ptr %59, align 8
  %61 = fmul double %60, 1.000000e+03
  %62 = getelementptr inbounds %class.G1MMUTracker, ptr %9, i32 0, i32 0
  %63 = load double, ptr %62, align 8
  %64 = fmul double %63, 1.000000e+03
  call void (ptr, ...) @_ZN7LogImplILN6LogTag4typeE49ELS1_88ELS1_0ELS1_0ELS1_0ELS1_0EE5writeILN8LogLevel4typeE2EEEvPKcz(ptr noundef @.str.6, double noundef %58, double noundef %61, double noundef %64)
  br label %65

65:                                               ; preds = %56, %55
  br label %79

66:                                               ; preds = %34
  %67 = call noundef zeroext i1 @_ZN7LogImplILN6LogTag4typeE49ELS1_88ELS1_0ELS1_0ELS1_0ELS1_0EE8is_levelEN8LogLevel4typeE(i32 noundef 3)
  br i1 %67, label %69, label %68

68:                                               ; preds = %66
  br label %78

69:                                               ; preds = %66
  %70 = load double, ptr %8, align 8
  %71 = fmul double %70, 1.000000e+03
  %72 = getelementptr inbounds %class.G1MMUTracker, ptr %9, i32 0, i32 1
  %73 = load double, ptr %72, align 8
  %74 = fmul double %73, 1.000000e+03
  %75 = getelementptr inbounds %class.G1MMUTracker, ptr %9, i32 0, i32 0
  %76 = load double, ptr %75, align 8
  %77 = fmul double %76, 1.000000e+03
  call void (ptr, ...) @_ZN7LogImplILN6LogTag4typeE49ELS1_88ELS1_0ELS1_0ELS1_0ELS1_0EE5writeILN8LogLevel4typeE3EEEvPKcz(ptr noundef @.str.7, double noundef %71, double noundef %74, double noundef %77)
  br label %78

78:                                               ; preds = %69, %68
  br label %79

79:                                               ; preds = %78, %65
  ret void
}