; Function Attrs: mustprogress nounwind uwtable
define hidden void @_ZN12G1MMUTracker9add_pauseEdd(ptr nocapture noundef nonnull align 8 dereferenceable(1052) %0, double noundef %1, double noundef %2) local_unnamed_addr #1 align 2 {
  %4 = load double, ptr %0, align 8
  %5 = fsub double %2, %4
  %6 = getelementptr inbounds i8, ptr %0, i64 1048
  %.promoted.i = load i32, ptr %6, align 8
  %7 = icmp sgt i32 %.promoted.i, 0
  br i1 %7, label %.lr.ph.i, label %._crit_edge.i

.lr.ph.i:                                         ; preds = %3
  %8 = getelementptr inbounds i8, ptr %0, i64 16
  %9 = getelementptr inbounds i8, ptr %0, i64 1044
  %.promoted4.i = load i32, ptr %9, align 4
  br label %10

10:                                               ; preds = %17, %.lr.ph.i
  %11 = phi i32 [ %.promoted4.i, %.lr.ph.i ], [ %19, %17 ]
  %.pr = phi i32 [ %.promoted.i, %.lr.ph.i ], [ %20, %17 ]
  %12 = sext i32 %11 to i64
  %13 = getelementptr inbounds [64 x %class.G1MMUTrackerElem], ptr %8, i64 0, i64 %12, i32 1
  %14 = load double, ptr %13, align 8
  %15 = fsub double %14, %5
  %16 = fcmp olt double %15, 0x3E7AD7F29ABCAF48
  br i1 %16, label %17, label %_ZN12G1MMUTracker22remove_expired_entriesEd.exit

17:                                               ; preds = %10
  %18 = add nsw i32 %11, 65
  %19 = srem i32 %18, 64
  store i32 %19, ptr %9, align 4
  %20 = add nsw i32 %.pr, -1
  store i32 %20, ptr %6, align 8
  %21 = icmp sgt i32 %.pr, 1
  br i1 %21, label %10, label %_ZN12G1MMUTracker22remove_expired_entriesEd.exit.thread, !llvm.loop !6

._crit_edge.i:                                    ; preds = %3
  %22 = icmp eq i32 %.promoted.i, 0
  br i1 %22, label %_ZN12G1MMUTracker22remove_expired_entriesEd.exit.thread, label %23

23:                                               ; preds = %._crit_edge.i
  %24 = load ptr, ptr @g_assert_poison, align 8
  store i8 88, ptr %24, align 1
  tail call void (ptr, i32, ptr, ptr, ...) @_Z15report_vm_errorPKciS0_S0_z(ptr noundef nonnull @.str, i32 noundef 56, ptr noundef nonnull @.str.4, ptr noundef nonnull @.str.5) #8
  unreachable

_ZN12G1MMUTracker22remove_expired_entriesEd.exit: ; preds = %10
  %25 = icmp eq i32 %.pr, 64
  br i1 %25, label %26, label %_ZN12G1MMUTracker22remove_expired_entriesEd.exit.thread

26:                                               ; preds = %_ZN12G1MMUTracker22remove_expired_entriesEd.exit
  %27 = getelementptr inbounds i8, ptr %0, i64 1040
  %28 = load i32, ptr %27, align 8
  %29 = add nsw i32 %28, 65
  %30 = srem i32 %29, 64
  store i32 %30, ptr %27, align 8
  %31 = add nsw i32 %11, 65
  %32 = srem i32 %31, 64
  store i32 %32, ptr %9, align 4
  br label %39

_ZN12G1MMUTracker22remove_expired_entriesEd.exit.thread: ; preds = %17, %._crit_edge.i, %_ZN12G1MMUTracker22remove_expired_entriesEd.exit
  %33 = phi i32 [ %.pr, %_ZN12G1MMUTracker22remove_expired_entriesEd.exit ], [ 0, %._crit_edge.i ], [ 0, %17 ]
  %34 = getelementptr inbounds i8, ptr %0, i64 1040
  %35 = load i32, ptr %34, align 8
  %36 = add nsw i32 %35, 65
  %37 = srem i32 %36, 64
  store i32 %37, ptr %34, align 8
  %38 = add nuw nsw i32 %33, 1
  store i32 %38, ptr %6, align 8
  br label %39

39:                                               ; preds = %_ZN12G1MMUTracker22remove_expired_entriesEd.exit.thread, %26
  %40 = phi i32 [ %37, %_ZN12G1MMUTracker22remove_expired_entriesEd.exit.thread ], [ %30, %26 ]
  %41 = getelementptr inbounds i8, ptr %0, i64 16
  %42 = sext i32 %40 to i64
  %43 = getelementptr inbounds [64 x %class.G1MMUTrackerElem], ptr %41, i64 0, i64 %42
  store double %1, ptr %43, align 8
  %.sroa.2.0..sroa_idx = getelementptr inbounds i8, ptr %43, i64 8
  store double %2, ptr %.sroa.2.0..sroa_idx, align 8
  %44 = load double, ptr %0, align 8
  %45 = fsub double %2, %44
  %46 = load i32, ptr %6, align 8
  %47 = icmp sgt i32 %46, 0
  br i1 %47, label %.lr.ph.i10, label %_ZN12G1MMUTracker17calculate_gc_timeEd.exit

.lr.ph.i10:                                       ; preds = %39
  %48 = getelementptr inbounds i8, ptr %0, i64 1044
  %49 = load i32, ptr %48, align 4
  %50 = add i32 %49, 64
  br label %51

51:                                               ; preds = %68, %.lr.ph.i10
  %.018.i = phi double [ 0.000000e+00, %.lr.ph.i10 ], [ %.1.i, %68 ]
  %.01517.i = phi i32 [ 0, %.lr.ph.i10 ], [ %69, %68 ]
  %52 = add i32 %50, %.01517.i
  %53 = srem i32 %52, 64
  %54 = sext i32 %53 to i64
  %55 = getelementptr inbounds [64 x %class.G1MMUTrackerElem], ptr %41, i64 0, i64 %54
  %56 = getelementptr inbounds i8, ptr %55, i64 8
  %57 = load double, ptr %56, align 8
  %58 = fcmp ogt double %57, %45
  br i1 %58, label %59, label %68

59:                                               ; preds = %51
  %60 = load double, ptr %55, align 8
  %61 = fcmp ogt double %60, %45
  br i1 %61, label %62, label %65

62:                                               ; preds = %59
  %63 = fsub double %57, %60
  %64 = fadd double %.018.i, %63
  br label %68

65:                                               ; preds = %59
  %66 = fsub double %57, %45
  %67 = fadd double %.018.i, %66
  br label %68

68:                                               ; preds = %65, %62, %51
  %.1.i = phi double [ %64, %62 ], [ %67, %65 ], [ %.018.i, %51 ]
  %69 = add nuw nsw i32 %.01517.i, 1
  %exitcond.not.i = icmp eq i32 %69, %46
  br i1 %exitcond.not.i, label %_ZN12G1MMUTracker17calculate_gc_timeEd.exit, label %51, !llvm.loop !8

_ZN12G1MMUTracker17calculate_gc_timeEd.exit:      ; preds = %68, %39
  %.0.lcssa.i = phi double [ 0.000000e+00, %39 ], [ %.1.i, %68 ]
  %70 = getelementptr inbounds i8, ptr %0, i64 8
  %71 = load double, ptr %70, align 8
  tail call void @_ZN11G1MMUTracer10report_mmuEddd(double noundef %44, double noundef %.0.lcssa.i, double noundef %71) #9
  %72 = load double, ptr %70, align 8
  %73 = fcmp olt double %.0.lcssa.i, %72
  br i1 %73, label %74, label %81

74:                                               ; preds = %_ZN12G1MMUTracker17calculate_gc_timeEd.exit
  %75 = load volatile ptr, ptr getelementptr inbounds (i8, ptr @_ZN16LogTagSetMappingILN6LogTag4typeE49ELS1_88ELS1_0ELS1_0ELS1_0ELS1_0EE7_tagsetE, i64 56), align 8
  %.not11 = icmp eq ptr %75, null
  br i1 %.not11, label %88, label %76

76:                                               ; preds = %74
  %77 = fmul double %.0.lcssa.i, 1.000000e+03
  %78 = fmul double %72, 1.000000e+03
  %79 = load double, ptr %0, align 8
  %80 = fmul double %79, 1.000000e+03
  tail call void (ptr, ...) @_ZN7LogImplILN6LogTag4typeE49ELS1_88ELS1_0ELS1_0ELS1_0ELS1_0EE5writeILN8LogLevel4typeE2EEEvPKcz(ptr noundef nonnull @.str.6, double noundef %77, double noundef %78, double noundef %80)
  br label %88

81:                                               ; preds = %_ZN12G1MMUTracker17calculate_gc_timeEd.exit
  %82 = load volatile ptr, ptr getelementptr inbounds (i8, ptr @_ZN16LogTagSetMappingILN6LogTag4typeE49ELS1_88ELS1_0ELS1_0ELS1_0ELS1_0EE7_tagsetE, i64 64), align 8
  %.not = icmp eq ptr %82, null
  br i1 %.not, label %88, label %83

83:                                               ; preds = %81
  %84 = fmul double %.0.lcssa.i, 1.000000e+03
  %85 = fmul double %72, 1.000000e+03
  %86 = load double, ptr %0, align 8
  %87 = fmul double %86, 1.000000e+03
  tail call void (ptr, ...) @_ZN7LogImplILN6LogTag4typeE49ELS1_88ELS1_0ELS1_0ELS1_0ELS1_0EE5writeILN8LogLevel4typeE3EEEvPKcz(ptr noundef nonnull @.str.7, double noundef %84, double noundef %85, double noundef %87)
  br label %88

88:                                               ; preds = %83, %81, %76, %74
  ret void
}